target datalayout = "e-m:e-p270:32:32-p271:32:32-p272:64:64-i64:64-i128:128-f80:128-n8:16:32:64-S128"
target triple = "x86_64-pc-linux-gnu"

@.str.8 = private unnamed_addr constant [3 x i8] c"%d\00", align 1

; Function Attrs: nounwind uwtable
define dso_local void @prte_info_out_int(ptr noundef %0, ptr noundef %1, i32 noundef %2) #0 {
  %4 = alloca ptr, align 8
  %5 = alloca ptr, align 8
  %6 = alloca i32, align 4
  %7 = alloca ptr, align 8
  store ptr %0, ptr %4, align 8, !tbaa !4
  store ptr %1, ptr %5, align 8, !tbaa !4
  store i32 %2, ptr %6, align 4, !tbaa !9
  call void @llvm.lifetime.start.p0(i64 8, ptr %7) #6
  %8 = load i32, ptr %6, align 4, !tbaa !9
  %9 = call i32 (ptr, ptr, ...) @pmix_asprintf(ptr noundef %7, ptr noundef @.str.8, i32 noundef %8)
  %10 = load ptr, ptr %4, align 8, !tbaa !4
  %11 = load ptr, ptr %5, align 8, !tbaa !4
  %12 = load ptr, ptr %7, align 8, !tbaa !4
  call void @prte_info_out(ptr noundef %10, ptr noundef %11, ptr noundef %12)
  %13 = load ptr, ptr %7, align 8, !tbaa !4
  call void @free(ptr noundef %13) #6
  call void @llvm.lifetime.end.p0(i64 8, ptr %7) #6
  ret void
}