; Function Attrs: nounwind uwtable
define dso_local void @prte_info_out_int(ptr noundef %0, ptr noundef %1, i32 noundef %2) local_unnamed_addr #0 {
  %4 = alloca ptr, align 8
  call void @llvm.lifetime.start.p0(i64 8, ptr nonnull %4) #9
  %5 = call i32 (ptr, ptr, ...) @pmix_asprintf(ptr noundef nonnull %4, ptr noundef nonnull @.str.8, i32 noundef %2) #9
  %6 = load ptr, ptr %4, align 8, !tbaa !4
  call void @prte_info_out(ptr noundef %0, ptr noundef %1, ptr noundef %6)
  %7 = load ptr, ptr %4, align 8, !tbaa !4
  call void @free(ptr noundef %7) #9
  call void @llvm.lifetime.end.p0(i64 8, ptr nonnull %4) #9
  ret void
}